target datalayout = "e-m:e-p270:32:32-p271:32:32-p272:64:64-i64:64-i128:128-f80:128-n8:16:32:64-S128"
target triple = "x86_64-pc-linux-gnu"

%"struct.faiss::InvertedListScanner" = type { ptr, i64, i8, i8, ptr, i64 }
%"struct.faiss::(anonymous namespace)::IVFFlatScanner.16" = type { %"struct.faiss::InvertedListScanner", i64, ptr }

; Function Attrs: inlinehint mustprogress nounwind uwtable
define linkonce_odr noundef i64 @_ZN5faiss8lo_buildEmm(i64 noundef %0, i64 noundef %1) #1 comdat {
  %3 = alloca i64, align 8
  %4 = alloca i64, align 8
  store i64 %0, ptr %3, align 8, !tbaa !9
  store i64 %1, ptr %4, align 8, !tbaa !9
  %5 = load i64, ptr %3, align 8, !tbaa !9
  %6 = shl i64 %5, 32
  %7 = load i64, ptr %4, align 8, !tbaa !9
  %8 = or i64 %6, %7
  ret i64 %8
}

; Function Attrs: inlinehint mustprogress nounwind uwtable
define linkonce_odr noundef zeroext i1 @_ZN5faiss4CMinIflE3cmpEff(float noundef %0, float noundef %1) #1 comdat align 2 {
  %3 = alloca float, align 4
  %4 = alloca float, align 4
  store float %0, ptr %3, align 4, !tbaa !65
  store float %1, ptr %4, align 4, !tbaa !65
  %5 = load float, ptr %3, align 4, !tbaa !65
  %6 = load float, ptr %4, align 4, !tbaa !65
  %7 = fcmp olt float %5, %6
  ret i1 %7
}

; Function Attrs: mustprogress uwtable
define internal void @_ZNK5faiss12_GLOBAL__N_114IVFFlatScannerILNS_10MetricTypeE0ENS_4CMinIflEELb0EE16scan_codes_rangeEmPKhPKlfRNS_16RangeQueryResultE(ptr noundef nonnull align 8 dereferenceable(56) %0, i64 noundef %1, ptr noundef %2, ptr noundef %3, float noundef %4, ptr noundef nonnull align 8 dereferenceable(24) %5) unnamed_addr #3 align 2 {
  %7 = alloca ptr, align 8
  %8 = alloca i64, align 8
  %9 = alloca ptr, align 8
  %10 = alloca ptr, align 8
  %11 = alloca float, align 4
  %12 = alloca ptr, align 8
  %13 = alloca ptr, align 8
  %14 = alloca i64, align 8
  %15 = alloca ptr, align 8
  %16 = alloca float, align 4
  %17 = alloca i64, align 8
  store ptr %0, ptr %7, align 8, !tbaa !146
  store i64 %1, ptr %8, align 8, !tbaa !9
  store ptr %2, ptr %9, align 8, !tbaa !11
  store ptr %3, ptr %10, align 8, !tbaa !43
  store float %4, ptr %11, align 4, !tbaa !65
  store ptr %5, ptr %12, align 8, !tbaa !132
  %18 = load ptr, ptr %7, align 8
  call void @llvm.lifetime.start.p0(i64 8, ptr %13) #12
  %19 = load ptr, ptr %9, align 8, !tbaa !11
  store ptr %19, ptr %13, align 8, !tbaa !13
  call void @llvm.lifetime.start.p0(i64 8, ptr %14) #12
  store i64 0, ptr %14, align 8, !tbaa !9
  br label %20

20:                                               ; preds = %61, %6
  %21 = load i64, ptr %14, align 8, !tbaa !9
  %22 = load i64, ptr %8, align 8, !tbaa !9
  %23 = icmp ult i64 %21, %22
  br i1 %23, label %25, label %24

24:                                               ; preds = %20
  call void @llvm.lifetime.end.p0(i64 8, ptr %14) #12
  br label %64

25:                                               ; preds = %20
  call void @llvm.lifetime.start.p0(i64 8, ptr %15) #12
  %26 = load ptr, ptr %13, align 8, !tbaa !13
  %27 = getelementptr inbounds nuw %"struct.faiss::(anonymous namespace)::IVFFlatScanner.16", ptr %18, i32 0, i32 1
  %28 = load i64, ptr %27, align 8, !tbaa !148
  %29 = load i64, ptr %14, align 8, !tbaa !9
  %30 = mul i64 %28, %29
  %31 = getelementptr inbounds nuw float, ptr %26, i64 %30
  store ptr %31, ptr %15, align 8, !tbaa !13
  call void @llvm.lifetime.start.p0(i64 4, ptr %16) #12
  %32 = getelementptr inbounds nuw %"struct.faiss::(anonymous namespace)::IVFFlatScanner.16", ptr %18, i32 0, i32 2
  %33 = load ptr, ptr %32, align 8, !tbaa !154
  %34 = load ptr, ptr %15, align 8, !tbaa !13
  %35 = getelementptr inbounds nuw %"struct.faiss::(anonymous namespace)::IVFFlatScanner.16", ptr %18, i32 0, i32 1
  %36 = load i64, ptr %35, align 8, !tbaa !148
  %37 = call noundef float @_ZN5faiss18fvec_inner_productEPKfS1_m(ptr noundef %33, ptr noundef %34, i64 noundef %36)
  store float %37, ptr %16, align 4, !tbaa !65
  %38 = load float, ptr %11, align 4, !tbaa !65
  %39 = load float, ptr %16, align 4, !tbaa !65
  %40 = call noundef zeroext i1 @_ZN5faiss4CMinIflE3cmpEff(float noundef %38, float noundef %39)
  br i1 %40, label %41, label %60

41:                                               ; preds = %25
  call void @llvm.lifetime.start.p0(i64 8, ptr %17) #12
  %42 = getelementptr inbounds nuw %"struct.faiss::InvertedListScanner", ptr %18, i32 0, i32 3
  %43 = load i8, ptr %42, align 1, !tbaa !127, !range !46, !noundef !47
  %44 = trunc i8 %43 to i1
  br i1 %44, label %45, label %50

45:                                               ; preds = %41
  %46 = getelementptr inbounds nuw %"struct.faiss::InvertedListScanner", ptr %18, i32 0, i32 1
  %47 = load i64, ptr %46, align 8, !tbaa !126
  %48 = load i64, ptr %14, align 8, !tbaa !9
  %49 = call noundef i64 @_ZN5faiss8lo_buildEmm(i64 noundef %47, i64 noundef %48)
  br label %55

50:                                               ; preds = %41
  %51 = load ptr, ptr %10, align 8, !tbaa !43
  %52 = load i64, ptr %14, align 8, !tbaa !9
  %53 = getelementptr inbounds nuw i64, ptr %51, i64 %52
  %54 = load i64, ptr %53, align 8, !tbaa !9
  br label %55

55:                                               ; preds = %50, %45
  %56 = phi i64 [ %49, %45 ], [ %54, %50 ]
  store i64 %56, ptr %17, align 8, !tbaa !9
  %57 = load ptr, ptr %12, align 8, !tbaa !132
  %58 = load float, ptr %16, align 4, !tbaa !65
  %59 = load i64, ptr %17, align 8, !tbaa !9
  call void @_ZN5faiss16RangeQueryResult3addEfl(ptr noundef nonnull align 8 dereferenceable(24) %57, float noundef %58, i64 noundef %59)
  call void @llvm.lifetime.end.p0(i64 8, ptr %17) #12
  br label %60

60:                                               ; preds = %55, %25
  call void @llvm.lifetime.end.p0(i64 4, ptr %16) #12
  call void @llvm.lifetime.end.p0(i64 8, ptr %15) #12
  br label %61

61:                                               ; preds = %60
  %62 = load i64, ptr %14, align 8, !tbaa !9
  %63 = add i64 %62, 1
  store i64 %63, ptr %14, align 8, !tbaa !9
  br label %20, !llvm.loop !156

64:                                               ; preds = %24
  call void @llvm.lifetime.end.p0(i64 8, ptr %13) #12
  ret void
}